target datalayout = "e-m:e-p270:32:32-p271:32:32-p272:64:64-i64:64-i128:128-f80:128-n8:16:32:64-S128"
target triple = "x86_64-unknown-linux-gnu"

%struct.mi_os_mem_config_s = type { i64, i64, i64, i8, i8, i8 }
%struct.mi_stats_s = type { %struct.mi_stat_count_s, %struct.mi_stat_count_s, %struct.mi_stat_count_s, %struct.mi_stat_count_s, %struct.mi_stat_count_s, %struct.mi_stat_count_s, %struct.mi_stat_count_s, %struct.mi_stat_count_s, %struct.mi_stat_count_s, %struct.mi_stat_count_s, %struct.mi_stat_count_s, %struct.mi_stat_count_s, %struct.mi_stat_count_s, %struct.mi_stat_count_s, %struct.mi_stat_count_s, %struct.mi_stat_counter_s, %struct.mi_stat_counter_s, %struct.mi_stat_counter_s, %struct.mi_stat_counter_s, %struct.mi_stat_counter_s, %struct.mi_stat_counter_s, %struct.mi_stat_counter_s, %struct.mi_stat_counter_s, %struct.mi_stat_counter_s, %struct.mi_stat_counter_s }
%struct.mi_stat_count_s = type { i64, i64, i64, i64 }
%struct.mi_stat_counter_s = type { i64, i64 }

@mi_os_mem_config = internal global %struct.mi_os_mem_config_s { i64 4096, i64 0, i64 4096, i8 1, i8 0, i8 1 }, align 8
@.str.1 = private unnamed_addr constant [75 x i8] c"cannot reset OS memory (error: %d (0x%x), address: %p, size: 0x%zx bytes)\0A\00", align 1

; Function Attrs: nounwind uwtable
define internal i64 @_mi_align_down(i64 noundef %sz, i64 noundef %alignment) #0 {
entry:
  %retval = alloca i64, align 8
  %sz.addr = alloca i64, align 8
  %alignment.addr = alloca i64, align 8
  %mask = alloca i64, align 8
  store i64 %sz, ptr %sz.addr, align 8
  store i64 %alignment, ptr %alignment.addr, align 8
  %0 = load i64, ptr %alignment.addr, align 8
  %sub = sub i64 %0, 1
  store i64 %sub, ptr %mask, align 8
  %1 = load i64, ptr %alignment.addr, align 8
  %2 = load i64, ptr %mask, align 8
  %and = and i64 %1, %2
  %cmp = icmp eq i64 %and, 0
  br i1 %cmp, label %if.then, label %if.else

if.then:                                          ; preds = %entry
  %3 = load i64, ptr %sz.addr, align 8
  %4 = load i64, ptr %mask, align 8
  %not = xor i64 %4, -1
  %and1 = and i64 %3, %not
  store i64 %and1, ptr %retval, align 8
  br label %return

if.else:                                          ; preds = %entry
  %5 = load i64, ptr %sz.addr, align 8
  %6 = load i64, ptr %alignment.addr, align 8
  %div = udiv i64 %5, %6
  %7 = load i64, ptr %alignment.addr, align 8
  %mul = mul i64 %div, %7
  store i64 %mul, ptr %retval, align 8
  br label %return

return:                                           ; preds = %if.else, %if.then
  %8 = load i64, ptr %retval, align 8
  ret i64 %8
}

; Function Attrs: nounwind uwtable
define internal i64 @_mi_align_up(i64 noundef %sz, i64 noundef %alignment) #0 {
entry:
  %retval = alloca i64, align 8
  %sz.addr = alloca i64, align 8
  %alignment.addr = alloca i64, align 8
  %mask = alloca i64, align 8
  store i64 %sz, ptr %sz.addr, align 8
  store i64 %alignment, ptr %alignment.addr, align 8
  %0 = load i64, ptr %alignment.addr, align 8
  %sub = sub i64 %0, 1
  store i64 %sub, ptr %mask, align 8
  %1 = load i64, ptr %alignment.addr, align 8
  %2 = load i64, ptr %mask, align 8
  %and = and i64 %1, %2
  %cmp = icmp eq i64 %and, 0
  br i1 %cmp, label %if.then, label %if.else

if.then:                                          ; preds = %entry
  %3 = load i64, ptr %sz.addr, align 8
  %4 = load i64, ptr %mask, align 8
  %add = add i64 %3, %4
  %5 = load i64, ptr %mask, align 8
  %not = xor i64 %5, -1
  %and1 = and i64 %add, %not
  store i64 %and1, ptr %retval, align 8
  br label %return

if.else:                                          ; preds = %entry
  %6 = load i64, ptr %sz.addr, align 8
  %7 = load i64, ptr %mask, align 8
  %add2 = add i64 %6, %7
  %8 = load i64, ptr %alignment.addr, align 8
  %div = udiv i64 %add2, %8
  %9 = load i64, ptr %alignment.addr, align 8
  %mul = mul i64 %div, %9
  store i64 %mul, ptr %retval, align 8
  br label %return

return:                                           ; preds = %if.else, %if.then
  %10 = load i64, ptr %retval, align 8
  ret i64 %10
}

; Function Attrs: nounwind uwtable
define internal ptr @mi_align_down_ptr(ptr noundef %p, i64 noundef %alignment) #0 {
entry:
  %p.addr = alloca ptr, align 8
  %alignment.addr = alloca i64, align 8
  store ptr %p, ptr %p.addr, align 8
  store i64 %alignment, ptr %alignment.addr, align 8
  %0 = load ptr, ptr %p.addr, align 8
  %1 = ptrtoint ptr %0 to i64
  %2 = load i64, ptr %alignment.addr, align 8
  %call = call i64 @_mi_align_down(i64 noundef %1, i64 noundef %2) #5
  %3 = inttoptr i64 %call to ptr
  ret ptr %3
}

; Function Attrs: nounwind uwtable
define internal ptr @mi_align_up_ptr(ptr noundef %p, i64 noundef %alignment) #0 {
entry:
  %p.addr = alloca ptr, align 8
  %alignment.addr = alloca i64, align 8
  store ptr %p, ptr %p.addr, align 8
  store i64 %alignment, ptr %alignment.addr, align 8
  %0 = load ptr, ptr %p.addr, align 8
  %1 = ptrtoint ptr %0 to i64
  %2 = load i64, ptr %alignment.addr, align 8
  %call = call i64 @_mi_align_up(i64 noundef %1, i64 noundef %2) #5
  %3 = inttoptr i64 %call to ptr
  ret ptr %3
}

; Function Attrs: nounwind uwtable
define hidden i64 @_mi_os_page_size() #0 {
entry:
  %0 = load i64, ptr @mi_os_mem_config, align 8
  ret i64 %0
}

; Function Attrs: nounwind uwtable
define internal ptr @mi_os_page_align_areax(i1 noundef zeroext %conservative, ptr noundef %addr, i64 noundef %size, ptr noundef %newsize) #0 {
entry:
  %retval = alloca ptr, align 8
  %conservative.addr = alloca i8, align 1
  %addr.addr = alloca ptr, align 8
  %size.addr = alloca i64, align 8
  %newsize.addr = alloca ptr, align 8
  %start = alloca ptr, align 8
  %end = alloca ptr, align 8
  %diff = alloca i64, align 8
  %frombool = zext i1 %conservative to i8
  store i8 %frombool, ptr %conservative.addr, align 1
  store ptr %addr, ptr %addr.addr, align 8
  store i64 %size, ptr %size.addr, align 8
  store ptr %newsize, ptr %newsize.addr, align 8
  %0 = load ptr, ptr %newsize.addr, align 8
  %cmp = icmp ne ptr %0, null
  br i1 %cmp, label %if.then, label %if.end

if.then:                                          ; preds = %entry
  %1 = load ptr, ptr %newsize.addr, align 8
  store i64 0, ptr %1, align 8
  br label %if.end

if.end:                                           ; preds = %if.then, %entry
  %2 = load i64, ptr %size.addr, align 8
  %cmp1 = icmp eq i64 %2, 0
  br i1 %cmp1, label %if.then3, label %lor.lhs.false

lor.lhs.false:                                    ; preds = %if.end
  %3 = load ptr, ptr %addr.addr, align 8
  %cmp2 = icmp eq ptr %3, null
  br i1 %cmp2, label %if.then3, label %if.end4

if.then3:                                         ; preds = %lor.lhs.false, %if.end
  store ptr null, ptr %retval, align 8
  br label %return

if.end4:                                          ; preds = %lor.lhs.false
  %4 = load i8, ptr %conservative.addr, align 1
  %tobool = trunc i8 %4 to i1
  br i1 %tobool, label %cond.true, label %cond.false

cond.true:                                        ; preds = %if.end4
  %5 = load ptr, ptr %addr.addr, align 8
  %call = call i64 @_mi_os_page_size() #5
  %call5 = call ptr @mi_align_up_ptr(ptr noundef %5, i64 noundef %call) #5
  br label %cond.end

cond.false:                                       ; preds = %if.end4
  %6 = load ptr, ptr %addr.addr, align 8
  %call6 = call i64 @_mi_os_page_size() #5
  %call7 = call ptr @mi_align_down_ptr(ptr noundef %6, i64 noundef %call6) #5
  br label %cond.end

cond.end:                                         ; preds = %cond.false, %cond.true
  %cond = phi ptr [ %call5, %cond.true ], [ %call7, %cond.false ]
  store ptr %cond, ptr %start, align 8
  %7 = load i8, ptr %conservative.addr, align 1
  %tobool8 = trunc i8 %7 to i1
  br i1 %tobool8, label %cond.true9, label %cond.false12

cond.true9:                                       ; preds = %cond.end
  %8 = load ptr, ptr %addr.addr, align 8
  %9 = load i64, ptr %size.addr, align 8
  %add.ptr = getelementptr inbounds i8, ptr %8, i64 %9
  %call10 = call i64 @_mi_os_page_size() #5
  %call11 = call ptr @mi_align_down_ptr(ptr noundef %add.ptr, i64 noundef %call10) #5
  br label %cond.end16

cond.false12:                                     ; preds = %cond.end
  %10 = load ptr, ptr %addr.addr, align 8
  %11 = load i64, ptr %size.addr, align 8
  %add.ptr13 = getelementptr inbounds i8, ptr %10, i64 %11
  %call14 = call i64 @_mi_os_page_size() #5
  %call15 = call ptr @mi_align_up_ptr(ptr noundef %add.ptr13, i64 noundef %call14) #5
  br label %cond.end16

cond.end16:                                       ; preds = %cond.false12, %cond.true9
  %cond17 = phi ptr [ %call11, %cond.true9 ], [ %call15, %cond.false12 ]
  store ptr %cond17, ptr %end, align 8
  %12 = load ptr, ptr %end, align 8
  %13 = load ptr, ptr %start, align 8
  %sub.ptr.lhs.cast = ptrtoint ptr %12 to i64
  %sub.ptr.rhs.cast = ptrtoint ptr %13 to i64
  %sub.ptr.sub = sub i64 %sub.ptr.lhs.cast, %sub.ptr.rhs.cast
  store i64 %sub.ptr.sub, ptr %diff, align 8
  %14 = load i64, ptr %diff, align 8
  %cmp18 = icmp sle i64 %14, 0
  br i1 %cmp18, label %if.then19, label %if.end20

if.then19:                                        ; preds = %cond.end16
  store ptr null, ptr %retval, align 8
  br label %return

if.end20:                                         ; preds = %cond.end16
  %15 = load ptr, ptr %newsize.addr, align 8
  %cmp21 = icmp ne ptr %15, null
  br i1 %cmp21, label %if.then22, label %if.end23

if.then22:                                        ; preds = %if.end20
  %16 = load i64, ptr %diff, align 8
  %17 = load ptr, ptr %newsize.addr, align 8
  store i64 %16, ptr %17, align 8
  br label %if.end23

if.end23:                                         ; preds = %if.then22, %if.end20
  %18 = load ptr, ptr %start, align 8
  store ptr %18, ptr %retval, align 8
  br label %return

return:                                           ; preds = %if.end23, %if.then19, %if.then3
  %19 = load ptr, ptr %retval, align 8
  ret ptr %19
}

; Function Attrs: nounwind uwtable
define internal ptr @mi_os_page_align_area_conservative(ptr noundef %addr, i64 noundef %size, ptr noundef %newsize) #0 {
entry:
  %addr.addr = alloca ptr, align 8
  %size.addr = alloca i64, align 8
  %newsize.addr = alloca ptr, align 8
  store ptr %addr, ptr %addr.addr, align 8
  store i64 %size, ptr %size.addr, align 8
  store ptr %newsize, ptr %newsize.addr, align 8
  %0 = load ptr, ptr %addr.addr, align 8
  %1 = load i64, ptr %size.addr, align 8
  %2 = load ptr, ptr %newsize.addr, align 8
  %call = call ptr @mi_os_page_align_areax(i1 noundef zeroext true, ptr noundef %0, i64 noundef %1, ptr noundef %2) #5
  ret ptr %call
}

; Function Attrs: nounwind uwtable
define hidden zeroext i1 @_mi_os_reset(ptr noundef %addr, i64 noundef %size, ptr noundef %stats) #0 {
entry:
  %retval = alloca i1, align 1
  %addr.addr = alloca ptr, align 8
  %size.addr = alloca i64, align 8
  %stats.addr = alloca ptr, align 8
  %csize = alloca i64, align 8
  %start = alloca ptr, align 8
  %err = alloca i32, align 4
  store ptr %addr, ptr %addr.addr, align 8
  store i64 %size, ptr %size.addr, align 8
  store ptr %stats, ptr %stats.addr, align 8
  %0 = load ptr, ptr %addr.addr, align 8
  %1 = load i64, ptr %size.addr, align 8
  %call = call ptr @mi_os_page_align_area_conservative(ptr noundef %0, i64 noundef %1, ptr noundef %csize) #5
  store ptr %call, ptr %start, align 8
  %2 = load i64, ptr %csize, align 8
  %cmp = icmp eq i64 %2, 0
  br i1 %cmp, label %if.then, label %if.end

if.then:                                          ; preds = %entry
  store i1 true, ptr %retval, align 1
  br label %return

if.end:                                           ; preds = %entry
  %3 = load ptr, ptr %stats.addr, align 8
  %reset = getelementptr inbounds %struct.mi_stats_s, ptr %3, i32 0, i32 4
  %4 = load i64, ptr %csize, align 8
  call void @_mi_stat_increase(ptr noundef %reset, i64 noundef %4) #5
  %5 = load ptr, ptr %stats.addr, align 8
  %reset_calls = getelementptr inbounds %struct.mi_stats_s, ptr %5, i32 0, i32 18
  call void @_mi_stat_counter_increase(ptr noundef %reset_calls, i64 noundef 1) #5
  %6 = load ptr, ptr %start, align 8
  %7 = load i64, ptr %csize, align 8
  %call1 = call i32 @_mi_prim_reset(ptr noundef %6, i64 noundef %7) #5
  store i32 %call1, ptr %err, align 4
  %8 = load i32, ptr %err, align 4
  %cmp2 = icmp ne i32 %8, 0
  br i1 %cmp2, label %if.then3, label %if.end4

if.then3:                                         ; preds = %if.end
  %9 = load i32, ptr %err, align 4
  %10 = load i32, ptr %err, align 4
  %11 = load ptr, ptr %start, align 8
  %12 = load i64, ptr %csize, align 8
  call void (ptr, ...) @_mi_warning_message(ptr noundef @.str.1, i32 noundef %9, i32 noundef %10, ptr noundef %11, i64 noundef %12) #5
  br label %if.end4

if.end4:                                          ; preds = %if.then3, %if.end
  %13 = load i32, ptr %err, align 4
  %cmp5 = icmp eq i32 %13, 0
  store i1 %cmp5, ptr %retval, align 1
  br label %return

return:                                           ; preds = %if.end4, %if.then
  %14 = load i1, ptr %retval, align 1
  ret i1 %14
}