; Function Attrs: nounwind uwtable
define hidden noundef zeroext i1 @_mi_os_reset(ptr noundef %addr, i64 noundef %size, ptr noundef %stats) local_unnamed_addr #1 {
entry:
  %cmp1.i.i = icmp eq i64 %size, 0
  %cmp2.i.i = icmp eq ptr %addr, null
  %or.cond.i.i = or i1 %cmp2.i.i, %cmp1.i.i
  br i1 %or.cond.i.i, label %return, label %if.end4.i.i

if.end4.i.i:                                      ; preds = %entry
  %0 = load i64, ptr @mi_os_mem_config, align 8
  %1 = ptrtoint ptr %addr to i64
  %2 = tail call range(i64 0, 65) i64 @llvm.ctpop.i64(i64 %0)
  %cmp.i.i.i.i = icmp samesign ult i64 %2, 2
  %sub.i.i.i.i = add i64 %1, -1
  %add.i.i.i.i = add i64 %sub.i.i.i.i, %0
  %add.ptr42.i.i = getelementptr inbounds i8, ptr %addr, i64 %size
  %3 = ptrtoint ptr %add.ptr42.i.i to i64
  br i1 %cmp.i.i.i.i, label %if.then.i.i24.i.i, label %if.else.i.i21.i.i

if.then.i.i24.i.i:                                ; preds = %if.end4.i.i
  %not.i.i.i.i = sub i64 0, %0
  %and1.i.i.i.i = and i64 %add.i.i.i.i, %not.i.i.i.i
  %and1.i.i26.i.i = and i64 %not.i.i.i.i, %3
  br label %cond.end16.i.i

if.else.i.i21.i.i:                                ; preds = %if.end4.i.i
  %4 = urem i64 %add.i.i.i.i, %0
  %mul.i.i.i.i = sub nuw i64 %add.i.i.i.i, %4
  %5 = urem i64 %3, %0
  %mul.i.i22.i.i = sub nuw i64 %3, %5
  br label %cond.end16.i.i

cond.end16.i.i:                                   ; preds = %if.else.i.i21.i.i, %if.then.i.i24.i.i
  %cond39.in.i.i = phi i64 [ %and1.i.i.i.i, %if.then.i.i24.i.i ], [ %mul.i.i.i.i, %if.else.i.i21.i.i ]
  %cond17.in.i.i = phi i64 [ %and1.i.i26.i.i, %if.then.i.i24.i.i ], [ %mul.i.i22.i.i, %if.else.i.i21.i.i ]
  %sub.ptr.sub.i.i = sub i64 %cond17.in.i.i, %cond39.in.i.i
  %cmp18.i.i = icmp slt i64 %sub.ptr.sub.i.i, 1
  br i1 %cmp18.i.i, label %return, label %if.end

if.end:                                           ; preds = %cond.end16.i.i
  %cond39.i.i = inttoptr i64 %cond39.in.i.i to ptr
  %reset = getelementptr inbounds nuw i8, ptr %stats, i64 128
  tail call void @_mi_stat_increase(ptr noundef nonnull %reset, i64 noundef %sub.ptr.sub.i.i) #7
  %reset_calls = getelementptr inbounds nuw i8, ptr %stats, i64 528
  tail call void @_mi_stat_counter_increase(ptr noundef nonnull %reset_calls, i64 noundef 1) #7
  %call1 = tail call i32 @_mi_prim_reset(ptr noundef %cond39.i.i, i64 noundef %sub.ptr.sub.i.i) #7
  %cmp2.not = icmp eq i32 %call1, 0
  br i1 %cmp2.not, label %return, label %if.then3

if.then3:                                         ; preds = %if.end
  tail call void (ptr, ...) @_mi_warning_message(ptr noundef nonnull @.str.1, i32 noundef %call1, i32 noundef %call1, ptr noundef %cond39.i.i, i64 noundef %sub.ptr.sub.i.i) #7
  br label %return

return:                                           ; preds = %cond.end16.i.i, %entry, %if.end, %if.then3
  %retval.0 = phi i1 [ false, %if.then3 ], [ true, %if.end ], [ true, %entry ], [ true, %cond.end16.i.i ]
  ret i1 %retval.0
}